target datalayout = "e-m:e-p270:32:32-p271:32:32-p272:64:64-i64:64-i128:128-f80:128-n8:16:32:64-S128"
target triple = "x86_64-pc-linux-gnu"

%"class.open3d::geometry::Geometry" = type { ptr, i32, i32, %"class.std::__cxx11::basic_string" }
%"class.std::__cxx11::basic_string" = type { %"struct.std::__cxx11::basic_string<char>::_Alloc_hider", i64, %union.anon }
%"struct.std::__cxx11::basic_string<char>::_Alloc_hider" = type { ptr }
%union.anon = type { i64, [8 x i8] }
%"class.std::__shared_count" = type { ptr }
%"class.std::vector.130" = type { %"struct.std::_Vector_base.131" }
%"struct.std::_Vector_base.131" = type { %"struct.std::_Vector_base<unsigned long, std::allocator<unsigned long>>::_Vector_impl" }
%"struct.std::_Vector_base<unsigned long, std::allocator<unsigned long>>::_Vector_impl" = type { %"struct.std::_Vector_base<unsigned long, std::allocator<unsigned long>>::_Vector_impl_data" }
%"struct.std::_Vector_base<unsigned long, std::allocator<unsigned long>>::_Vector_impl_data" = type { ptr, ptr, ptr }
%"class.open3d::geometry::Geometry3D" = type { %"class.open3d::geometry::Geometry" }
%"class.std::vector.43" = type { %"struct.std::_Vector_base.44" }
%"struct.std::_Vector_base.44" = type { %"struct.std::_Vector_base<Eigen::Matrix<double, 3, 1>, std::allocator<Eigen::Matrix<double, 3, 1>>>::_Vector_impl" }
%"struct.std::_Vector_base<Eigen::Matrix<double, 3, 1>, std::allocator<Eigen::Matrix<double, 3, 1>>>::_Vector_impl" = type { %"struct.std::_Vector_base<Eigen::Matrix<double, 3, 1>, std::allocator<Eigen::Matrix<double, 3, 1>>>::_Vector_impl_data" }
%"struct.std::_Vector_base<Eigen::Matrix<double, 3, 1>, std::allocator<Eigen::Matrix<double, 3, 1>>>::_Vector_impl_data" = type { ptr, ptr, ptr }
%"class.std::shared_ptr.80" = type { %"class.std::__shared_ptr.81" }
%"class.std::__shared_ptr.81" = type { ptr, %"class.std::__shared_count" }
%"class.open3d::geometry::MeshBase" = type { %"class.open3d::geometry::Geometry3D", %"class.std::vector.43", %"class.std::vector.43", %"class.std::vector.43" }

; Function Attrs: mustprogress nounwind ssp uwtable
define linkonce_odr void @_ZNSt15__new_allocatorImE10deallocateEPmm(ptr noundef nonnull align 1 dereferenceable(1) %0, ptr noundef %1, i64 noundef %2) #0 comdat align 2 {
  %4 = alloca ptr, align 8
  %5 = alloca ptr, align 8
  %6 = alloca i64, align 8
  store ptr %0, ptr %4, align 8, !tbaa !627
  store ptr %1, ptr %5, align 8, !tbaa !152
  store i64 %2, ptr %6, align 8, !tbaa !58
  %7 = load ptr, ptr %5, align 8, !tbaa !152
  %8 = load i64, ptr %6, align 8, !tbaa !58
  %9 = mul i64 %8, 8
  call void @_ZdlPvm(ptr noundef %7, i64 noundef %9) #25
  ret void
}

; Function Attrs: alwaysinline mustprogress ssp uwtable
define linkonce_odr void @_ZNSt16allocator_traitsISaImEE10deallocateERS0_Pmm(ptr noundef nonnull align 1 dereferenceable(1) %0, ptr noundef %1, i64 noundef %2) #10 comdat align 2 {
  %4 = alloca ptr, align 8
  %5 = alloca ptr, align 8
  %6 = alloca i64, align 8
  store ptr %0, ptr %4, align 8, !tbaa !622
  store ptr %1, ptr %5, align 8, !tbaa !152
  store i64 %2, ptr %6, align 8, !tbaa !58
  %7 = load ptr, ptr %4, align 8, !tbaa !622
  %8 = load ptr, ptr %5, align 8, !tbaa !152
  %9 = load i64, ptr %6, align 8, !tbaa !58
  call void @_ZNSt15__new_allocatorImE10deallocateEPmm(ptr noundef nonnull align 1 dereferenceable(1) %7, ptr noundef %8, i64 noundef %9)
  ret void
}

; Function Attrs: mustprogress nounwind ssp uwtable
define linkonce_odr void @_ZNSt12_Destroy_auxILb1EE9__destroyIPmEEvT_S3_(ptr noundef %0, ptr noundef %1) #0 comdat align 2 {
  %3 = alloca ptr, align 8
  %4 = alloca ptr, align 8
  store ptr %0, ptr %3, align 8, !tbaa !152
  store ptr %1, ptr %4, align 8, !tbaa !152
  ret void
}

; Function Attrs: mustprogress nounwind ssp uwtable
define linkonce_odr void @_ZNSt15__new_allocatorImED2Ev(ptr noundef nonnull align 1 dereferenceable(1) %0) unnamed_addr #0 comdat align 2 {
  %2 = alloca ptr, align 8
  store ptr %0, ptr %2, align 8, !tbaa !627
  ret void
}

; Function Attrs: mustprogress ssp uwtable
define linkonce_odr void @_ZNSt12_Vector_baseImSaImEE13_M_deallocateEPmm(ptr noundef nonnull align 8 dereferenceable(24) %0, ptr noundef %1, i64 noundef %2) #1 comdat align 2 {
  %4 = alloca ptr, align 8
  %5 = alloca ptr, align 8
  %6 = alloca i64, align 8
  store ptr %0, ptr %4, align 8, !tbaa !624
  store ptr %1, ptr %5, align 8, !tbaa !152
  store i64 %2, ptr %6, align 8, !tbaa !58
  %7 = load ptr, ptr %4, align 8
  %8 = load ptr, ptr %5, align 8, !tbaa !152
  %9 = icmp ne ptr %8, null
  br i1 %9, label %10, label %14

10:                                               ; preds = %3
  %11 = getelementptr inbounds nuw %"struct.std::_Vector_base.131", ptr %7, i32 0, i32 0
  %12 = load ptr, ptr %5, align 8, !tbaa !152
  %13 = load i64, ptr %6, align 8, !tbaa !58
  call void @_ZNSt16allocator_traitsISaImEE10deallocateERS0_Pmm(ptr noundef nonnull align 1 dereferenceable(1) %11, ptr noundef %12, i64 noundef %13)
  br label %14

14:                                               ; preds = %10, %3
  ret void
}

; Function Attrs: inlinehint mustprogress ssp uwtable
define linkonce_odr void @_ZSt8_DestroyIPmEvT_S1_(ptr noundef %0, ptr noundef %1) #16 comdat {
  %3 = alloca ptr, align 8
  %4 = alloca ptr, align 8
  store ptr %0, ptr %3, align 8, !tbaa !152
  store ptr %1, ptr %4, align 8, !tbaa !152
  %5 = load ptr, ptr %3, align 8, !tbaa !152
  %6 = load ptr, ptr %4, align 8, !tbaa !152
  call void @_ZNSt12_Destroy_auxILb1EE9__destroyIPmEEvT_S3_(ptr noundef %5, ptr noundef %6)
  ret void
}

; Function Attrs: noinline noreturn nounwind ssp uwtable
define linkonce_odr hidden void @__clang_call_terminate(ptr noundef %0) #14 comdat {
  %2 = call ptr @__cxa_begin_catch(ptr %0) #7
  call void @_ZSt9terminatev() #28
  unreachable
}

; Function Attrs: mustprogress nounwind ssp uwtable
define linkonce_odr void @_ZNSt12_Vector_baseImSaImEED2Ev(ptr noundef nonnull align 8 dereferenceable(24) %0) unnamed_addr #0 comdat align 2 personality ptr @__gxx_personality_v0 {
  %2 = alloca ptr, align 8
  store ptr %0, ptr %2, align 8, !tbaa !624
  %3 = load ptr, ptr %2, align 8
  %4 = getelementptr inbounds nuw %"struct.std::_Vector_base.131", ptr %3, i32 0, i32 0
  %5 = getelementptr inbounds nuw %"struct.std::_Vector_base<unsigned long, std::allocator<unsigned long>>::_Vector_impl_data", ptr %4, i32 0, i32 0
  %6 = load ptr, ptr %5, align 8, !tbaa !619
  %7 = getelementptr inbounds nuw %"struct.std::_Vector_base.131", ptr %3, i32 0, i32 0
  %8 = getelementptr inbounds nuw %"struct.std::_Vector_base<unsigned long, std::allocator<unsigned long>>::_Vector_impl_data", ptr %7, i32 0, i32 2
  %9 = load ptr, ptr %8, align 8, !tbaa !626
  %10 = getelementptr inbounds nuw %"struct.std::_Vector_base.131", ptr %3, i32 0, i32 0
  %11 = getelementptr inbounds nuw %"struct.std::_Vector_base<unsigned long, std::allocator<unsigned long>>::_Vector_impl_data", ptr %10, i32 0, i32 0
  %12 = load ptr, ptr %11, align 8, !tbaa !619
  %13 = ptrtoint ptr %9 to i64
  %14 = ptrtoint ptr %12 to i64
  %15 = sub i64 %13, %14
  %16 = sdiv exact i64 %15, 8
  invoke void @_ZNSt12_Vector_baseImSaImEE13_M_deallocateEPmm(ptr noundef nonnull align 8 dereferenceable(24) %3, ptr noundef %6, i64 noundef %16)
          to label %17 unwind label %19

17:                                               ; preds = %1
  %18 = getelementptr inbounds nuw %"struct.std::_Vector_base.131", ptr %3, i32 0, i32 0
  call void @_ZNSt15__new_allocatorImED2Ev(ptr noundef nonnull align 8 dereferenceable(24) %18) #7
  ret void

19:                                               ; preds = %1
  %20 = landingpad { ptr, i32 }
          catch ptr null
  %21 = extractvalue { ptr, i32 } %20, 0
  call void @__clang_call_terminate(ptr %21) #28
  unreachable
}

; Function Attrs: alwaysinline mustprogress ssp uwtable
define linkonce_odr void @_ZSt8_DestroyIPmmEvT_S1_RSaIT0_E(ptr noundef %0, ptr noundef %1, ptr noundef nonnull align 1 dereferenceable(1) %2) #10 comdat {
  %4 = alloca ptr, align 8
  %5 = alloca ptr, align 8
  %6 = alloca ptr, align 8
  store ptr %0, ptr %4, align 8, !tbaa !152
  store ptr %1, ptr %5, align 8, !tbaa !152
  store ptr %2, ptr %6, align 8, !tbaa !622
  %7 = load ptr, ptr %4, align 8, !tbaa !152
  %8 = load ptr, ptr %5, align 8, !tbaa !152
  call void @_ZSt8_DestroyIPmEvT_S1_(ptr noundef %7, ptr noundef %8)
  ret void
}

; Function Attrs: mustprogress nounwind ssp uwtable
define linkonce_odr noundef nonnull align 1 dereferenceable(1) ptr @_ZNSt12_Vector_baseImSaImEE19_M_get_Tp_allocatorEv(ptr noundef nonnull align 8 dereferenceable(24) %0) #0 comdat align 2 {
  %2 = alloca ptr, align 8
  store ptr %0, ptr %2, align 8, !tbaa !624
  %3 = load ptr, ptr %2, align 8
  %4 = getelementptr inbounds nuw %"struct.std::_Vector_base.131", ptr %3, i32 0, i32 0
  ret ptr %4
}

; Function Attrs: mustprogress nounwind ssp uwtable
define linkonce_odr void @_ZNSt6vectorImSaImEED2Ev(ptr noundef nonnull align 8 dereferenceable(24) %0) unnamed_addr #0 comdat align 2 personality ptr @__gxx_personality_v0 {
  %2 = alloca ptr, align 8
  store ptr %0, ptr %2, align 8, !tbaa !617
  %3 = load ptr, ptr %2, align 8
  %4 = getelementptr inbounds nuw %"struct.std::_Vector_base.131", ptr %3, i32 0, i32 0
  %5 = getelementptr inbounds nuw %"struct.std::_Vector_base<unsigned long, std::allocator<unsigned long>>::_Vector_impl_data", ptr %4, i32 0, i32 0
  %6 = load ptr, ptr %5, align 8, !tbaa !619
  %7 = getelementptr inbounds nuw %"struct.std::_Vector_base.131", ptr %3, i32 0, i32 0
  %8 = getelementptr inbounds nuw %"struct.std::_Vector_base<unsigned long, std::allocator<unsigned long>>::_Vector_impl_data", ptr %7, i32 0, i32 1
  %9 = load ptr, ptr %8, align 8, !tbaa !621
  %10 = call noundef nonnull align 1 dereferenceable(1) ptr @_ZNSt12_Vector_baseImSaImEE19_M_get_Tp_allocatorEv(ptr noundef nonnull align 8 dereferenceable(24) %3) #7
  invoke void @_ZSt8_DestroyIPmmEvT_S1_RSaIT0_E(ptr noundef %6, ptr noundef %9, ptr noundef nonnull align 1 dereferenceable(1) %10)
          to label %11 unwind label %12

11:                                               ; preds = %1
  call void @_ZNSt12_Vector_baseImSaImEED2Ev(ptr noundef nonnull align 8 dereferenceable(24) %3) #7
  ret void

12:                                               ; preds = %1
  %13 = landingpad { ptr, i32 }
          catch ptr null
  %14 = extractvalue { ptr, i32 } %13, 0
  call void @__clang_call_terminate(ptr %14) #28
  unreachable
}

; Function Attrs: mustprogress ssp uwtable
define void @_ZN6open3d13visualization16SelectionPolygon25CropTriangleMeshInPolygonERKNS_8geometry12TriangleMeshERKNS0_11ViewControlE(ptr dead_on_unwind noalias writable sret(%"class.std::shared_ptr.80") align 8 %0, ptr noundef nonnull align 8 dereferenceable(172) %1, ptr noundef nonnull align 8 dereferenceable(288) %2, ptr noundef nonnull align 16 dereferenceable(728) %3) #1 align 2 personality ptr @__gxx_personality_v0 {
  %5 = alloca ptr, align 8
  %6 = alloca ptr, align 8
  %7 = alloca ptr, align 8
  %8 = alloca ptr, align 8
  %9 = alloca %"class.std::vector.130", align 8
  %10 = alloca ptr, align 8
  %11 = alloca i32, align 4
  store ptr %0, ptr %5, align 8
  store ptr %1, ptr %6, align 8, !tbaa !4
  store ptr %2, ptr %7, align 8, !tbaa !404
  store ptr %3, ptr %8, align 8, !tbaa !305
  %12 = load ptr, ptr %6, align 8
  %13 = load ptr, ptr %7, align 8, !tbaa !404
  call void @llvm.lifetime.start.p0(i64 24, ptr %9) #7
  %14 = load ptr, ptr %7, align 8, !tbaa !404
  %15 = getelementptr inbounds nuw %"class.open3d::geometry::MeshBase", ptr %14, i32 0, i32 1
  %16 = load ptr, ptr %8, align 8, !tbaa !305
  call void @_ZN6open3d13visualization16SelectionPolygon13CropInPolygonERKSt6vectorIN5Eigen6MatrixIdLi3ELi1ELi0ELi3ELi1EEESaIS5_EERKNS0_11ViewControlE(ptr dead_on_unwind writable sret(%"class.std::vector.130") align 8 %9, ptr noundef nonnull align 8 dereferenceable(172) %12, ptr noundef nonnull align 8 dereferenceable(24) %15, ptr noundef nonnull align 16 dereferenceable(728) %16)
  invoke void @_ZNK6open3d8geometry12TriangleMesh13SelectByIndexERKSt6vectorImSaImEEb(ptr dead_on_unwind writable sret(%"class.std::shared_ptr.80") align 8 %0, ptr noundef nonnull align 8 dereferenceable(288) %13, ptr noundef nonnull align 8 dereferenceable(24) %9, i1 noundef zeroext true)
          to label %17 unwind label %18

17:                                               ; preds = %4
  call void @_ZNSt6vectorImSaImEED2Ev(ptr noundef nonnull align 8 dereferenceable(24) %9) #7
  call void @llvm.lifetime.end.p0(i64 24, ptr %9) #7
  ret void

18:                                               ; preds = %4
  %19 = landingpad { ptr, i32 }
          cleanup
  %20 = extractvalue { ptr, i32 } %19, 0
  store ptr %20, ptr %10, align 8
  %21 = extractvalue { ptr, i32 } %19, 1
  store i32 %21, ptr %11, align 4
  call void @_ZNSt6vectorImSaImEED2Ev(ptr noundef nonnull align 8 dereferenceable(24) %9) #7
  call void @llvm.lifetime.end.p0(i64 24, ptr %9) #7
  br label %22

22:                                               ; preds = %18
  %23 = load ptr, ptr %10, align 8
  %24 = load i32, ptr %11, align 4
  %25 = insertvalue { ptr, i32 } poison, ptr %23, 0
  %26 = insertvalue { ptr, i32 } %25, i32 %24, 1
  resume { ptr, i32 } %26
}