; Function Attrs: mustprogress ssp uwtable
define void @_ZN6open3d13visualization16SelectionPolygon25CropTriangleMeshInPolygonERKNS_8geometry12TriangleMeshERKNS0_11ViewControlE(ptr dead_on_unwind noalias writable sret(%"class.std::shared_ptr.80") align 8 %0, ptr noundef nonnull readonly align 8 captures(none) dereferenceable(172) %1, ptr noundef nonnull align 8 dereferenceable(288) %2, ptr noundef nonnull readonly align 16 captures(none) dereferenceable(728) %3) local_unnamed_addr #1 align 2 personality ptr @__gxx_personality_v0 {
  %5 = alloca %"class.std::vector.130", align 8
  call void @llvm.lifetime.start.p0(i64 24, ptr nonnull %5) #28
  %6 = getelementptr inbounds nuw i8, ptr %2, i64 48
  call void @_ZN6open3d13visualization16SelectionPolygon13CropInPolygonERKSt6vectorIN5Eigen6MatrixIdLi3ELi1ELi0ELi3ELi1EEESaIS5_EERKNS0_11ViewControlE(ptr dead_on_unwind nonnull writable sret(%"class.std::vector.130") align 8 %5, ptr noundef nonnull align 8 dereferenceable(172) %1, ptr noundef nonnull align 8 dereferenceable(24) %6, ptr noundef nonnull align 16 dereferenceable(728) %3)
  invoke void @_ZNK6open3d8geometry12TriangleMesh13SelectByIndexERKSt6vectorImSaImEEb(ptr dead_on_unwind writable sret(%"class.std::shared_ptr.80") align 8 %0, ptr noundef nonnull align 8 dereferenceable(288) %2, ptr noundef nonnull align 8 dereferenceable(24) %5, i1 noundef zeroext true)
          to label %7 unwind label %15

7:                                                ; preds = %4
  %8 = load ptr, ptr %5, align 8, !tbaa !115
  %.not.i.i.i = icmp eq ptr %8, null
  br i1 %.not.i.i.i, label %_ZNSt6vectorImSaImEED2Ev.exit, label %9

9:                                                ; preds = %7
  %10 = getelementptr inbounds nuw i8, ptr %5, i64 16
  %11 = load ptr, ptr %10, align 8, !tbaa !118
  %12 = ptrtoint ptr %11 to i64
  %13 = ptrtoint ptr %8 to i64
  %14 = sub i64 %12, %13
  call void @_ZdlPvm(ptr noundef nonnull %8, i64 noundef %14) #25
  br label %_ZNSt6vectorImSaImEED2Ev.exit

_ZNSt6vectorImSaImEED2Ev.exit:                    ; preds = %7, %9
  call void @llvm.lifetime.end.p0(i64 24, ptr nonnull %5) #28
  ret void

15:                                               ; preds = %4
  %16 = landingpad { ptr, i32 }
          cleanup
  %17 = load ptr, ptr %5, align 8, !tbaa !115
  %.not.i.i.i5 = icmp eq ptr %17, null
  br i1 %.not.i.i.i5, label %_ZNSt6vectorImSaImEED2Ev.exit6, label %18

18:                                               ; preds = %15
  %19 = getelementptr inbounds nuw i8, ptr %5, i64 16
  %20 = load ptr, ptr %19, align 8, !tbaa !118
  %21 = ptrtoint ptr %20 to i64
  %22 = ptrtoint ptr %17 to i64
  %23 = sub i64 %21, %22
  call void @_ZdlPvm(ptr noundef nonnull %17, i64 noundef %23) #25
  br label %_ZNSt6vectorImSaImEED2Ev.exit6

_ZNSt6vectorImSaImEED2Ev.exit6:                   ; preds = %15, %18
  call void @llvm.lifetime.end.p0(i64 24, ptr nonnull %5) #28
  resume { ptr, i32 } %16
}